; Function Attrs: mustprogress uwtable
define hidden void @_ZN2cv8ximgproc12segmentation47SelectiveSearchSegmentationStrategyMultipleImpl5mergeEii(ptr noundef nonnull readonly align 8 captures(none) dereferenceable(96) %0, i32 noundef %1, i32 noundef %2) unnamed_addr #3 align 2 {
  %4 = getelementptr inbounds nuw i8, ptr %0, i64 40
  %5 = getelementptr inbounds nuw i8, ptr %0, i64 48
  %6 = load ptr, ptr %5, align 8, !tbaa !91
  %7 = load ptr, ptr %4, align 8, !tbaa !111
  %.not = icmp eq ptr %6, %7
  br i1 %.not, label %._crit_edge, label %.lr.ph

._crit_edge:                                      ; preds = %.lr.ph, %3
  ret void

.lr.ph:                                           ; preds = %3, %.lr.ph
  %8 = phi ptr [ %18, %.lr.ph ], [ %7, %3 ]
  %9 = phi i64 [ %16, %.lr.ph ], [ 0, %3 ]
  %.06 = phi i32 [ %15, %.lr.ph ], [ 0, %3 ]
  %10 = getelementptr inbounds nuw %"struct.cv::Ptr.7", ptr %8, i64 %9
  %11 = load ptr, ptr %10, align 8, !tbaa !95
  %12 = load ptr, ptr %11, align 8, !tbaa !53
  %13 = getelementptr inbounds nuw i8, ptr %12, i64 80
  %14 = load ptr, ptr %13, align 8
  tail call void %14(ptr noundef nonnull align 8 dereferenceable(8) %11, i32 noundef %1, i32 noundef %2)
  %15 = add i32 %.06, 1
  %16 = zext i32 %15 to i64
  %17 = load ptr, ptr %5, align 8, !tbaa !91
  %18 = load ptr, ptr %4, align 8, !tbaa !111
  %19 = ptrtoint ptr %17 to i64
  %20 = ptrtoint ptr %18 to i64
  %21 = sub i64 %19, %20
  %22 = ashr exact i64 %21, 4
  %23 = icmp ugt i64 %22, %16
  br i1 %23, label %.lr.ph, label %._crit_edge, !llvm.loop !115
}